target datalayout = "e-m:e-p270:32:32-p271:32:32-p272:64:64-i64:64-i128:128-f80:128-n8:16:32:64-S128"
target triple = "x86_64-pc-linux-gnu"

%struct.png_XYZ = type { i32, i32, i32, i32, i32, i32, i32, i32, i32 }
%struct.png_xy = type { i32, i32, i32, i32, i32, i32, i32, i32 }

; Function Attrs: nounwind uwtable
define i32 @png_muldiv(ptr noundef %0, i32 noundef %1, i32 noundef %2, i32 noundef %3) #0 {
  %5 = alloca i32, align 4
  %6 = alloca ptr, align 8
  %7 = alloca i32, align 4
  %8 = alloca i32, align 4
  %9 = alloca i32, align 4
  %10 = alloca double, align 8
  store ptr %0, ptr %6, align 8
  store i32 %1, ptr %7, align 4
  store i32 %2, ptr %8, align 4
  store i32 %3, ptr %9, align 4
  %11 = load i32, ptr %9, align 4
  %12 = icmp ne i32 %11, 0
  br i1 %12, label %13, label %46

13:                                               ; preds = %4
  %14 = load i32, ptr %7, align 4
  %15 = icmp eq i32 %14, 0
  br i1 %15, label %19, label %16

16:                                               ; preds = %13
  %17 = load i32, ptr %8, align 4
  %18 = icmp eq i32 %17, 0
  br i1 %18, label %19, label %21

19:                                               ; preds = %16, %13
  %20 = load ptr, ptr %6, align 8
  store i32 0, ptr %20, align 4
  store i32 1, ptr %5, align 4
  br label %47

21:                                               ; preds = %16
  %22 = load i32, ptr %7, align 4
  %23 = sitofp i32 %22 to double
  store double %23, ptr %10, align 8
  %24 = load i32, ptr %8, align 4
  %25 = sitofp i32 %24 to double
  %26 = load double, ptr %10, align 8
  %27 = fmul double %26, %25
  store double %27, ptr %10, align 8
  %28 = load i32, ptr %9, align 4
  %29 = sitofp i32 %28 to double
  %30 = load double, ptr %10, align 8
  %31 = fdiv double %30, %29
  store double %31, ptr %10, align 8
  %32 = load double, ptr %10, align 8
  %33 = fadd double %32, 5.000000e-01
  %34 = call double @llvm.floor.f64(double %33)
  store double %34, ptr %10, align 8
  %35 = load double, ptr %10, align 8
  %36 = fcmp ole double %35, 0x41DFFFFFFFC00000
  br i1 %36, label %37, label %44

37:                                               ; preds = %21
  %38 = load double, ptr %10, align 8
  %39 = fcmp oge double %38, 0xC1E0000000000000
  br i1 %39, label %40, label %44

40:                                               ; preds = %37
  %41 = load double, ptr %10, align 8
  %42 = fptosi double %41 to i32
  %43 = load ptr, ptr %6, align 8
  store i32 %42, ptr %43, align 4
  store i32 1, ptr %5, align 4
  br label %47

44:                                               ; preds = %37, %21
  br label %45

45:                                               ; preds = %44
  br label %46

46:                                               ; preds = %45, %4
  store i32 0, ptr %5, align 4
  br label %47

47:                                               ; preds = %46, %40, %19
  %48 = load i32, ptr %5, align 4
  ret i32 %48
}

; Function Attrs: nounwind uwtable
define internal i32 @png_xy_from_XYZ(ptr noundef %0, ptr noundef %1) #0 {
  %3 = alloca i32, align 4
  %4 = alloca ptr, align 8
  %5 = alloca ptr, align 8
  %6 = alloca i32, align 4
  %7 = alloca i32, align 4
  %8 = alloca i32, align 4
  %9 = alloca i32, align 4
  store ptr %0, ptr %4, align 8
  store ptr %1, ptr %5, align 8
  %10 = load ptr, ptr %5, align 8
  %11 = getelementptr inbounds %struct.png_XYZ, ptr %10, i32 0, i32 0
  %12 = load i32, ptr %11, align 4
  %13 = load ptr, ptr %5, align 8
  %14 = getelementptr inbounds %struct.png_XYZ, ptr %13, i32 0, i32 1
  %15 = load i32, ptr %14, align 4
  %16 = add nsw i32 %12, %15
  %17 = load ptr, ptr %5, align 8
  %18 = getelementptr inbounds %struct.png_XYZ, ptr %17, i32 0, i32 2
  %19 = load i32, ptr %18, align 4
  %20 = add nsw i32 %16, %19
  store i32 %20, ptr %6, align 4
  %21 = load ptr, ptr %4, align 8
  %22 = getelementptr inbounds %struct.png_xy, ptr %21, i32 0, i32 0
  %23 = load ptr, ptr %5, align 8
  %24 = getelementptr inbounds %struct.png_XYZ, ptr %23, i32 0, i32 0
  %25 = load i32, ptr %24, align 4
  %26 = load i32, ptr %6, align 4
  %27 = call i32 @png_muldiv(ptr noundef %22, i32 noundef %25, i32 noundef 100000, i32 noundef %26)
  %28 = icmp eq i32 %27, 0
  br i1 %28, label %29, label %30

29:                                               ; preds = %2
  store i32 1, ptr %3, align 4
  br label %152

30:                                               ; preds = %2
  %31 = load ptr, ptr %4, align 8
  %32 = getelementptr inbounds %struct.png_xy, ptr %31, i32 0, i32 1
  %33 = load ptr, ptr %5, align 8
  %34 = getelementptr inbounds %struct.png_XYZ, ptr %33, i32 0, i32 1
  %35 = load i32, ptr %34, align 4
  %36 = load i32, ptr %6, align 4
  %37 = call i32 @png_muldiv(ptr noundef %32, i32 noundef %35, i32 noundef 100000, i32 noundef %36)
  %38 = icmp eq i32 %37, 0
  br i1 %38, label %39, label %40

39:                                               ; preds = %30
  store i32 1, ptr %3, align 4
  br label %152

40:                                               ; preds = %30
  %41 = load i32, ptr %6, align 4
  store i32 %41, ptr %7, align 4
  %42 = load ptr, ptr %5, align 8
  %43 = getelementptr inbounds %struct.png_XYZ, ptr %42, i32 0, i32 0
  %44 = load i32, ptr %43, align 4
  store i32 %44, ptr %8, align 4
  %45 = load ptr, ptr %5, align 8
  %46 = getelementptr inbounds %struct.png_XYZ, ptr %45, i32 0, i32 1
  %47 = load i32, ptr %46, align 4
  store i32 %47, ptr %9, align 4
  %48 = load ptr, ptr %5, align 8
  %49 = getelementptr inbounds %struct.png_XYZ, ptr %48, i32 0, i32 3
  %50 = load i32, ptr %49, align 4
  %51 = load ptr, ptr %5, align 8
  %52 = getelementptr inbounds %struct.png_XYZ, ptr %51, i32 0, i32 4
  %53 = load i32, ptr %52, align 4
  %54 = add nsw i32 %50, %53
  %55 = load ptr, ptr %5, align 8
  %56 = getelementptr inbounds %struct.png_XYZ, ptr %55, i32 0, i32 5
  %57 = load i32, ptr %56, align 4
  %58 = add nsw i32 %54, %57
  store i32 %58, ptr %6, align 4
  %59 = load ptr, ptr %4, align 8
  %60 = getelementptr inbounds %struct.png_xy, ptr %59, i32 0, i32 2
  %61 = load ptr, ptr %5, align 8
  %62 = getelementptr inbounds %struct.png_XYZ, ptr %61, i32 0, i32 3
  %63 = load i32, ptr %62, align 4
  %64 = load i32, ptr %6, align 4
  %65 = call i32 @png_muldiv(ptr noundef %60, i32 noundef %63, i32 noundef 100000, i32 noundef %64)
  %66 = icmp eq i32 %65, 0
  br i1 %66, label %67, label %68

67:                                               ; preds = %40
  store i32 1, ptr %3, align 4
  br label %152

68:                                               ; preds = %40
  %69 = load ptr, ptr %4, align 8
  %70 = getelementptr inbounds %struct.png_xy, ptr %69, i32 0, i32 3
  %71 = load ptr, ptr %5, align 8
  %72 = getelementptr inbounds %struct.png_XYZ, ptr %71, i32 0, i32 4
  %73 = load i32, ptr %72, align 4
  %74 = load i32, ptr %6, align 4
  %75 = call i32 @png_muldiv(ptr noundef %70, i32 noundef %73, i32 noundef 100000, i32 noundef %74)
  %76 = icmp eq i32 %75, 0
  br i1 %76, label %77, label %78

77:                                               ; preds = %68
  store i32 1, ptr %3, align 4
  br label %152

78:                                               ; preds = %68
  %79 = load i32, ptr %6, align 4
  %80 = load i32, ptr %7, align 4
  %81 = add nsw i32 %80, %79
  store i32 %81, ptr %7, align 4
  %82 = load ptr, ptr %5, align 8
  %83 = getelementptr inbounds %struct.png_XYZ, ptr %82, i32 0, i32 3
  %84 = load i32, ptr %83, align 4
  %85 = load i32, ptr %8, align 4
  %86 = add nsw i32 %85, %84
  store i32 %86, ptr %8, align 4
  %87 = load ptr, ptr %5, align 8
  %88 = getelementptr inbounds %struct.png_XYZ, ptr %87, i32 0, i32 4
  %89 = load i32, ptr %88, align 4
  %90 = load i32, ptr %9, align 4
  %91 = add nsw i32 %90, %89
  store i32 %91, ptr %9, align 4
  %92 = load ptr, ptr %5, align 8
  %93 = getelementptr inbounds %struct.png_XYZ, ptr %92, i32 0, i32 6
  %94 = load i32, ptr %93, align 4
  %95 = load ptr, ptr %5, align 8
  %96 = getelementptr inbounds %struct.png_XYZ, ptr %95, i32 0, i32 7
  %97 = load i32, ptr %96, align 4
  %98 = add nsw i32 %94, %97
  %99 = load ptr, ptr %5, align 8
  %100 = getelementptr inbounds %struct.png_XYZ, ptr %99, i32 0, i32 8
  %101 = load i32, ptr %100, align 4
  %102 = add nsw i32 %98, %101
  store i32 %102, ptr %6, align 4
  %103 = load ptr, ptr %4, align 8
  %104 = getelementptr inbounds %struct.png_xy, ptr %103, i32 0, i32 4
  %105 = load ptr, ptr %5, align 8
  %106 = getelementptr inbounds %struct.png_XYZ, ptr %105, i32 0, i32 6
  %107 = load i32, ptr %106, align 4
  %108 = load i32, ptr %6, align 4
  %109 = call i32 @png_muldiv(ptr noundef %104, i32 noundef %107, i32 noundef 100000, i32 noundef %108)
  %110 = icmp eq i32 %109, 0
  br i1 %110, label %111, label %112

111:                                              ; preds = %78
  store i32 1, ptr %3, align 4
  br label %152

112:                                              ; preds = %78
  %113 = load ptr, ptr %4, align 8
  %114 = getelementptr inbounds %struct.png_xy, ptr %113, i32 0, i32 5
  %115 = load ptr, ptr %5, align 8
  %116 = getelementptr inbounds %struct.png_XYZ, ptr %115, i32 0, i32 7
  %117 = load i32, ptr %116, align 4
  %118 = load i32, ptr %6, align 4
  %119 = call i32 @png_muldiv(ptr noundef %114, i32 noundef %117, i32 noundef 100000, i32 noundef %118)
  %120 = icmp eq i32 %119, 0
  br i1 %120, label %121, label %122

121:                                              ; preds = %112
  store i32 1, ptr %3, align 4
  br label %152

122:                                              ; preds = %112
  %123 = load i32, ptr %6, align 4
  %124 = load i32, ptr %7, align 4
  %125 = add nsw i32 %124, %123
  store i32 %125, ptr %7, align 4
  %126 = load ptr, ptr %5, align 8
  %127 = getelementptr inbounds %struct.png_XYZ, ptr %126, i32 0, i32 6
  %128 = load i32, ptr %127, align 4
  %129 = load i32, ptr %8, align 4
  %130 = add nsw i32 %129, %128
  store i32 %130, ptr %8, align 4
  %131 = load ptr, ptr %5, align 8
  %132 = getelementptr inbounds %struct.png_XYZ, ptr %131, i32 0, i32 7
  %133 = load i32, ptr %132, align 4
  %134 = load i32, ptr %9, align 4
  %135 = add nsw i32 %134, %133
  store i32 %135, ptr %9, align 4
  %136 = load ptr, ptr %4, align 8
  %137 = getelementptr inbounds %struct.png_xy, ptr %136, i32 0, i32 6
  %138 = load i32, ptr %8, align 4
  %139 = load i32, ptr %7, align 4
  %140 = call i32 @png_muldiv(ptr noundef %137, i32 noundef %138, i32 noundef 100000, i32 noundef %139)
  %141 = icmp eq i32 %140, 0
  br i1 %141, label %142, label %143

142:                                              ; preds = %122
  store i32 1, ptr %3, align 4
  br label %152

143:                                              ; preds = %122
  %144 = load ptr, ptr %4, align 8
  %145 = getelementptr inbounds %struct.png_xy, ptr %144, i32 0, i32 7
  %146 = load i32, ptr %9, align 4
  %147 = load i32, ptr %7, align 4
  %148 = call i32 @png_muldiv(ptr noundef %145, i32 noundef %146, i32 noundef 100000, i32 noundef %147)
  %149 = icmp eq i32 %148, 0
  br i1 %149, label %150, label %151

150:                                              ; preds = %143
  store i32 1, ptr %3, align 4
  br label %152

151:                                              ; preds = %143
  store i32 0, ptr %3, align 4
  br label %152

152:                                              ; preds = %151, %150, %142, %121, %111, %77, %67, %39, %29
  %153 = load i32, ptr %3, align 4
  ret i32 %153
}