; Function Attrs: mustprogress nofree norecurse nosync nounwind willreturn memory(argmem: readwrite) uwtable
define internal fastcc range(i32 0, 2) i32 @png_xy_from_XYZ(ptr nocapture noundef writeonly %0, ptr nocapture noundef readonly %1) unnamed_addr #15 {
  %3 = load i32, ptr %1, align 4
  %4 = getelementptr inbounds i8, ptr %1, i64 4
  %5 = load i32, ptr %4, align 4
  %6 = add nsw i32 %5, %3
  %7 = getelementptr inbounds i8, ptr %1, i64 8
  %8 = load i32, ptr %7, align 4
  %9 = add nsw i32 %6, %8
  %.not.i = icmp eq i32 %9, 0
  br i1 %.not.i, label %png_muldiv.exit.thread, label %10

10:                                               ; preds = %2
  %11 = icmp eq i32 %3, 0
  br i1 %11, label %23, label %12

12:                                               ; preds = %10
  %13 = sitofp i32 %3 to double
  %14 = fmul double %13, 1.000000e+05
  %15 = sitofp i32 %9 to double
  %16 = fdiv double %14, %15
  %17 = fadd double %16, 5.000000e-01
  %18 = tail call double @llvm.floor.f64(double %17)
  %19 = fcmp ole double %18, 0x41DFFFFFFFC00000
  %20 = fcmp oge double %18, 0xC1E0000000000000
  %or.cond3.i = and i1 %19, %20
  br i1 %or.cond3.i, label %21, label %png_muldiv.exit.thread

21:                                               ; preds = %12
  %22 = fptosi double %18 to i32
  br label %23

23:                                               ; preds = %10, %21
  %.sink.i = phi i32 [ %22, %21 ], [ 0, %10 ]
  store i32 %.sink.i, ptr %0, align 4
  %24 = getelementptr inbounds i8, ptr %0, i64 4
  %25 = load i32, ptr %4, align 4
  %26 = icmp eq i32 %25, 0
  br i1 %26, label %38, label %27

27:                                               ; preds = %23
  %28 = sitofp i32 %25 to double
  %29 = fmul double %28, 1.000000e+05
  %30 = sitofp i32 %9 to double
  %31 = fdiv double %29, %30
  %32 = fadd double %31, 5.000000e-01
  %33 = tail call double @llvm.floor.f64(double %32)
  %34 = fcmp ole double %33, 0x41DFFFFFFFC00000
  %35 = fcmp oge double %33, 0xC1E0000000000000
  %or.cond3.i49 = and i1 %34, %35
  br i1 %or.cond3.i49, label %36, label %png_muldiv.exit.thread

36:                                               ; preds = %27
  %37 = fptosi double %33 to i32
  br label %38

38:                                               ; preds = %36, %23
  %.sink.i52 = phi i32 [ %37, %36 ], [ 0, %23 ]
  store i32 %.sink.i52, ptr %24, align 4
  %39 = load i32, ptr %1, align 4
  %40 = load i32, ptr %4, align 4
  %41 = getelementptr inbounds i8, ptr %1, i64 12
  %42 = load i32, ptr %41, align 4
  %43 = getelementptr inbounds i8, ptr %1, i64 16
  %44 = load i32, ptr %43, align 4
  %45 = add nsw i32 %44, %42
  %46 = getelementptr inbounds i8, ptr %1, i64 20
  %47 = load i32, ptr %46, align 4
  %48 = add nsw i32 %45, %47
  %49 = getelementptr inbounds i8, ptr %0, i64 8
  %.not.i54 = icmp eq i32 %48, 0
  br i1 %.not.i54, label %png_muldiv.exit.thread, label %50

50:                                               ; preds = %38
  %51 = icmp eq i32 %42, 0
  br i1 %51, label %63, label %52

52:                                               ; preds = %50
  %53 = sitofp i32 %42 to double
  %54 = fmul double %53, 1.000000e+05
  %55 = sitofp i32 %48 to double
  %56 = fdiv double %54, %55
  %57 = fadd double %56, 5.000000e-01
  %58 = tail call double @llvm.floor.f64(double %57)
  %59 = fcmp ole double %58, 0x41DFFFFFFFC00000
  %60 = fcmp oge double %58, 0xC1E0000000000000
  %or.cond3.i55 = and i1 %59, %60
  br i1 %or.cond3.i55, label %61, label %png_muldiv.exit.thread

61:                                               ; preds = %52
  %62 = fptosi double %58 to i32
  br label %63

63:                                               ; preds = %50, %61
  %.sink.i58 = phi i32 [ %62, %61 ], [ 0, %50 ]
  store i32 %.sink.i58, ptr %49, align 4
  %64 = getelementptr inbounds i8, ptr %0, i64 12
  %65 = load i32, ptr %43, align 4
  %66 = icmp eq i32 %65, 0
  br i1 %66, label %78, label %67

67:                                               ; preds = %63
  %68 = sitofp i32 %65 to double
  %69 = fmul double %68, 1.000000e+05
  %70 = sitofp i32 %48 to double
  %71 = fdiv double %69, %70
  %72 = fadd double %71, 5.000000e-01
  %73 = tail call double @llvm.floor.f64(double %72)
  %74 = fcmp ole double %73, 0x41DFFFFFFFC00000
  %75 = fcmp oge double %73, 0xC1E0000000000000
  %or.cond3.i61 = and i1 %74, %75
  br i1 %or.cond3.i61, label %76, label %png_muldiv.exit.thread

76:                                               ; preds = %67
  %77 = fptosi double %73 to i32
  br label %78

78:                                               ; preds = %76, %63
  %.sink.i64 = phi i32 [ %77, %76 ], [ 0, %63 ]
  store i32 %.sink.i64, ptr %64, align 4
  %79 = add nsw i32 %48, %9
  %80 = load i32, ptr %41, align 4
  %81 = add nsw i32 %80, %39
  %82 = load i32, ptr %43, align 4
  %83 = add nsw i32 %82, %40
  %84 = getelementptr inbounds i8, ptr %1, i64 24
  %85 = load i32, ptr %84, align 4
  %86 = getelementptr inbounds i8, ptr %1, i64 28
  %87 = load i32, ptr %86, align 4
  %88 = add nsw i32 %87, %85
  %89 = getelementptr inbounds i8, ptr %1, i64 32
  %90 = load i32, ptr %89, align 4
  %91 = add nsw i32 %88, %90
  %92 = getelementptr inbounds i8, ptr %0, i64 16
  %.not.i66 = icmp eq i32 %91, 0
  br i1 %.not.i66, label %png_muldiv.exit.thread, label %93

93:                                               ; preds = %78
  %94 = icmp eq i32 %85, 0
  br i1 %94, label %106, label %95

95:                                               ; preds = %93
  %96 = sitofp i32 %85 to double
  %97 = fmul double %96, 1.000000e+05
  %98 = sitofp i32 %91 to double
  %99 = fdiv double %97, %98
  %100 = fadd double %99, 5.000000e-01
  %101 = tail call double @llvm.floor.f64(double %100)
  %102 = fcmp ole double %101, 0x41DFFFFFFFC00000
  %103 = fcmp oge double %101, 0xC1E0000000000000
  %or.cond3.i67 = and i1 %102, %103
  br i1 %or.cond3.i67, label %104, label %png_muldiv.exit.thread

104:                                              ; preds = %95
  %105 = fptosi double %101 to i32
  br label %106

106:                                              ; preds = %93, %104
  %.sink.i70 = phi i32 [ %105, %104 ], [ 0, %93 ]
  store i32 %.sink.i70, ptr %92, align 4
  %107 = getelementptr inbounds i8, ptr %0, i64 20
  %108 = load i32, ptr %86, align 4
  %109 = icmp eq i32 %108, 0
  br i1 %109, label %121, label %110

110:                                              ; preds = %106
  %111 = sitofp i32 %108 to double
  %112 = fmul double %111, 1.000000e+05
  %113 = sitofp i32 %91 to double
  %114 = fdiv double %112, %113
  %115 = fadd double %114, 5.000000e-01
  %116 = tail call double @llvm.floor.f64(double %115)
  %117 = fcmp ole double %116, 0x41DFFFFFFFC00000
  %118 = fcmp oge double %116, 0xC1E0000000000000
  %or.cond3.i73 = and i1 %117, %118
  br i1 %or.cond3.i73, label %119, label %png_muldiv.exit.thread

119:                                              ; preds = %110
  %120 = fptosi double %116 to i32
  br label %121

121:                                              ; preds = %119, %106
  %.sink.i76 = phi i32 [ %120, %119 ], [ 0, %106 ]
  store i32 %.sink.i76, ptr %107, align 4
  %122 = add nsw i32 %79, %91
  %123 = load i32, ptr %84, align 4
  %124 = add nsw i32 %81, %123
  %125 = load i32, ptr %86, align 4
  %126 = getelementptr inbounds i8, ptr %0, i64 24
  %.not.i78 = icmp eq i32 %122, 0
  br i1 %.not.i78, label %png_muldiv.exit.thread, label %127

127:                                              ; preds = %121
  %128 = icmp eq i32 %124, 0
  br i1 %128, label %140, label %129

129:                                              ; preds = %127
  %130 = sitofp i32 %124 to double
  %131 = fmul double %130, 1.000000e+05
  %132 = sitofp i32 %122 to double
  %133 = fdiv double %131, %132
  %134 = fadd double %133, 5.000000e-01
  %135 = tail call double @llvm.floor.f64(double %134)
  %136 = fcmp ole double %135, 0x41DFFFFFFFC00000
  %137 = fcmp oge double %135, 0xC1E0000000000000
  %or.cond3.i79 = and i1 %136, %137
  br i1 %or.cond3.i79, label %138, label %png_muldiv.exit.thread

138:                                              ; preds = %129
  %139 = fptosi double %135 to i32
  br label %140

140:                                              ; preds = %127, %138
  %.sink.i82 = phi i32 [ %139, %138 ], [ 0, %127 ]
  store i32 %.sink.i82, ptr %126, align 4
  %141 = add nsw i32 %83, %125
  %142 = getelementptr inbounds i8, ptr %0, i64 28
  %143 = icmp eq i32 %141, 0
  br i1 %143, label %png_muldiv.exit89, label %144

144:                                              ; preds = %140
  %145 = sitofp i32 %141 to double
  %146 = fmul double %145, 1.000000e+05
  %147 = sitofp i32 %122 to double
  %148 = fdiv double %146, %147
  %149 = fadd double %148, 5.000000e-01
  %150 = tail call double @llvm.floor.f64(double %149)
  %151 = fcmp ole double %150, 0x41DFFFFFFFC00000
  %152 = fcmp oge double %150, 0xC1E0000000000000
  %or.cond3.i85 = and i1 %151, %152
  br i1 %or.cond3.i85, label %153, label %png_muldiv.exit.thread

153:                                              ; preds = %144
  %154 = fptosi double %150 to i32
  br label %png_muldiv.exit89

png_muldiv.exit89:                                ; preds = %140, %153
  %.sink.i88 = phi i32 [ %154, %153 ], [ 0, %140 ]
  store i32 %.sink.i88, ptr %142, align 4
  br label %png_muldiv.exit.thread

png_muldiv.exit.thread:                           ; preds = %121, %129, %110, %78, %95, %67, %38, %52, %27, %2, %12, %png_muldiv.exit89, %144
  %.0 = phi i32 [ 0, %png_muldiv.exit89 ], [ 1, %144 ], [ 1, %12 ], [ 1, %2 ], [ 1, %27 ], [ 1, %52 ], [ 1, %38 ], [ 1, %67 ], [ 1, %95 ], [ 1, %78 ], [ 1, %110 ], [ 1, %129 ], [ 1, %121 ]
  ret i32 %.0
}